target datalayout = "e-m:e-p270:32:32-p271:32:32-p272:64:64-i64:64-i128:128-f80:128-n8:16:32:64-S128"
target triple = "x86_64-pc-linux-gnu"

%struct.lv_calendar_date_t = type { i16, i8, i8 }

@.str.3 = private unnamed_addr constant [6 x i8] c"%d %s\00", align 1
@month_names_def = internal global [12 x ptr] [ptr @.str.4, ptr @.str.5, ptr @.str.6, ptr @.str.7, ptr @.str.8, ptr @.str.9, ptr @.str.10, ptr @.str.11, ptr @.str.12, ptr @.str.13, ptr @.str.14, ptr @.str.15], align 16

; Function Attrs: nounwind uwtable
define internal void @value_changed_event_cb(ptr noundef %0) #0 {
  %2 = alloca ptr, align 8
  %3 = alloca ptr, align 8
  %4 = alloca ptr, align 8
  %5 = alloca ptr, align 8
  %6 = alloca ptr, align 8
  store ptr %0, ptr %2, align 8, !tbaa !3
  call void @llvm.lifetime.start.p0(i64 8, ptr %3) #4
  %7 = load ptr, ptr %2, align 8, !tbaa !3
  %8 = call ptr @lv_event_get_current_target(ptr noundef %7)
  store ptr %8, ptr %3, align 8, !tbaa !3
  call void @llvm.lifetime.start.p0(i64 8, ptr %4) #4
  %9 = load ptr, ptr %3, align 8, !tbaa !3
  %10 = call ptr @lv_obj_get_parent(ptr noundef %9)
  store ptr %10, ptr %4, align 8, !tbaa !3
  call void @llvm.lifetime.start.p0(i64 8, ptr %5) #4
  %11 = load ptr, ptr %4, align 8, !tbaa !3
  %12 = call ptr @lv_calendar_get_showed_date(ptr noundef %11)
  store ptr %12, ptr %5, align 8, !tbaa !3
  br label %13

13:                                               ; preds = %1
  %14 = load ptr, ptr %5, align 8, !tbaa !3
  %15 = getelementptr inbounds nuw %struct.lv_calendar_date_t, ptr %14, i32 0, i32 0
  %16 = load i16, ptr %15, align 2, !tbaa !13
  %17 = zext i16 %16 to i32
  %18 = icmp sge i32 %17, 0
  br i1 %18, label %19, label %31

19:                                               ; preds = %13
  %20 = load ptr, ptr %5, align 8, !tbaa !3
  %21 = getelementptr inbounds nuw %struct.lv_calendar_date_t, ptr %20, i32 0, i32 1
  %22 = load i8, ptr %21, align 2, !tbaa !15
  %23 = sext i8 %22 to i32
  %24 = icmp sge i32 %23, 1
  br i1 %24, label %25, label %31

25:                                               ; preds = %19
  %26 = load ptr, ptr %5, align 8, !tbaa !3
  %27 = getelementptr inbounds nuw %struct.lv_calendar_date_t, ptr %26, i32 0, i32 1
  %28 = load i8, ptr %27, align 2, !tbaa !15
  %29 = sext i8 %28 to i32
  %30 = icmp sle i32 %29, 12
  br i1 %30, label %37, label %31

31:                                               ; preds = %25, %19, %13
  br label %32

32:                                               ; preds = %31
  br label %33

33:                                               ; preds = %32
  br label %34

34:                                               ; preds = %33
  br label %35

35:                                               ; preds = %36, %34
  br label %36

36:                                               ; preds = %35
  br label %35

37:                                               ; preds = %25
  br label %38

38:                                               ; preds = %37
  br label %39

39:                                               ; preds = %38
  call void @llvm.lifetime.start.p0(i64 8, ptr %6) #4
  %40 = load ptr, ptr %3, align 8, !tbaa !3
  %41 = call ptr @lv_obj_get_child(ptr noundef %40, i32 noundef 1)
  store ptr %41, ptr %6, align 8, !tbaa !3
  %42 = load ptr, ptr %6, align 8, !tbaa !3
  %43 = load ptr, ptr %5, align 8, !tbaa !3
  %44 = getelementptr inbounds nuw %struct.lv_calendar_date_t, ptr %43, i32 0, i32 0
  %45 = load i16, ptr %44, align 2, !tbaa !13
  %46 = zext i16 %45 to i32
  %47 = load ptr, ptr %5, align 8, !tbaa !3
  %48 = getelementptr inbounds nuw %struct.lv_calendar_date_t, ptr %47, i32 0, i32 1
  %49 = load i8, ptr %48, align 2, !tbaa !15
  %50 = sext i8 %49 to i32
  %51 = sub nsw i32 %50, 1
  %52 = sext i32 %51 to i64
  %53 = getelementptr inbounds [12 x ptr], ptr @month_names_def, i64 0, i64 %52
  %54 = load ptr, ptr %53, align 8, !tbaa !3
  call void (ptr, ptr, ...) @lv_label_set_text_fmt(ptr noundef %42, ptr noundef @.str.3, i32 noundef %46, ptr noundef %54)
  call void @llvm.lifetime.end.p0(i64 8, ptr %6) #4
  call void @llvm.lifetime.end.p0(i64 8, ptr %5) #4
  call void @llvm.lifetime.end.p0(i64 8, ptr %4) #4
  call void @llvm.lifetime.end.p0(i64 8, ptr %3) #4
  ret void
}