; Function Attrs: nounwind uwtable
define internal void @value_changed_event_cb(ptr noundef %0) #0 {
  %2 = tail call ptr @lv_event_get_current_target(ptr noundef %0) #2
  %3 = tail call ptr @lv_obj_get_parent(ptr noundef %2) #2
  %4 = tail call ptr @lv_calendar_get_showed_date(ptr noundef %3) #2
  %5 = getelementptr inbounds nuw i8, ptr %4, i64 2
  %6 = load i8, ptr %5, align 2, !tbaa !10
  %7 = add i8 %6, -1
  %or.cond = icmp ult i8 %7, 12
  br i1 %or.cond, label %8, label %.preheader

.preheader:                                       ; preds = %1, %.preheader
  br label %.preheader

8:                                                ; preds = %1
  %9 = tail call ptr @lv_obj_get_child(ptr noundef %2, i32 noundef 1) #2
  %10 = load i16, ptr %4, align 2, !tbaa !12
  %11 = zext i16 %10 to i32
  %12 = load i8, ptr %5, align 2, !tbaa !10
  %13 = sext i8 %12 to i64
  %14 = add nsw i64 %13, -1
  %15 = getelementptr inbounds [12 x ptr], ptr @month_names_def, i64 0, i64 %14
  %16 = load ptr, ptr %15, align 8, !tbaa !8
  tail call void (ptr, ptr, ...) @lv_label_set_text_fmt(ptr noundef %9, ptr noundef nonnull @.str.3, i32 noundef %11, ptr noundef %16) #2
  ret void
}